target datalayout = "e-m:e-p270:32:32-p271:32:32-p272:64:64-i64:64-i128:128-f80:128-n8:16:32:64-S128"
target triple = "x86_64-pc-linux-gnu"

%struct.mbedtls_asn1_buf = type { i32, i64, ptr }

@.str = private unnamed_addr constant [118 x i8] c"generated/home/dtcxzyw/WorkSpace/Projects/compilers/llvm-opt-benchmark/bench/lief/bench_build/mbed_src/library/x509.c\00", align 1

; Function Attrs: inlinehint nounwind uwtable
define internal i32 @mbedtls_error_add(i32 noundef %0, i32 noundef %1, ptr noundef %2, i32 noundef %3) #2 {
  %5 = alloca i32, align 4
  %6 = alloca i32, align 4
  %7 = alloca ptr, align 8
  %8 = alloca i32, align 4
  store i32 %0, ptr %5, align 4, !tbaa !13
  store i32 %1, ptr %6, align 4, !tbaa !13
  store ptr %2, ptr %7, align 8, !tbaa !9
  store i32 %3, ptr %8, align 4, !tbaa !13
  %9 = load i32, ptr %5, align 4, !tbaa !13
  %10 = load i32, ptr %6, align 4, !tbaa !13
  %11 = add nsw i32 %9, %10
  ret i32 %11
}

; Function Attrs: nounwind uwtable
define hidden i32 @mbedtls_x509_get_sig(ptr noundef %0, ptr noundef %1, ptr noundef %2) #0 {
  %4 = alloca i32, align 4
  %5 = alloca ptr, align 8
  %6 = alloca ptr, align 8
  %7 = alloca ptr, align 8
  %8 = alloca i32, align 4
  %9 = alloca i64, align 8
  %10 = alloca i32, align 4
  %11 = alloca i32, align 4
  store ptr %0, ptr %5, align 8, !tbaa !3
  store ptr %1, ptr %6, align 8, !tbaa !9
  store ptr %2, ptr %7, align 8, !tbaa !11
  call void @llvm.lifetime.start.p0(i64 4, ptr %8) #9
  store i32 -110, ptr %8, align 4, !tbaa !13
  call void @llvm.lifetime.start.p0(i64 8, ptr %9) #9
  call void @llvm.lifetime.start.p0(i64 4, ptr %10) #9
  %12 = load ptr, ptr %6, align 8, !tbaa !9
  %13 = load ptr, ptr %5, align 8, !tbaa !3
  %14 = load ptr, ptr %13, align 8, !tbaa !9
  %15 = ptrtoint ptr %12 to i64
  %16 = ptrtoint ptr %14 to i64
  %17 = sub i64 %15, %16
  %18 = icmp slt i64 %17, 1
  br i1 %18, label %19, label %21

19:                                               ; preds = %3
  %20 = call i32 @mbedtls_error_add(i32 noundef -9344, i32 noundef -96, ptr noundef @.str, i32 noundef 697)
  store i32 %20, ptr %4, align 4
  store i32 1, ptr %11, align 4
  br label %48

21:                                               ; preds = %3
  %22 = load ptr, ptr %5, align 8, !tbaa !3
  %23 = load ptr, ptr %22, align 8, !tbaa !9
  %24 = load i8, ptr %23, align 1, !tbaa !15
  %25 = zext i8 %24 to i32
  store i32 %25, ptr %10, align 4, !tbaa !13
  %26 = load ptr, ptr %5, align 8, !tbaa !3
  %27 = load ptr, ptr %6, align 8, !tbaa !9
  %28 = call i32 @mbedtls_asn1_get_bitstring_null(ptr noundef %26, ptr noundef %27, ptr noundef %9)
  store i32 %28, ptr %8, align 4, !tbaa !13
  %29 = icmp ne i32 %28, 0
  br i1 %29, label %30, label %33

30:                                               ; preds = %21
  %31 = load i32, ptr %8, align 4, !tbaa !13
  %32 = call i32 @mbedtls_error_add(i32 noundef -9344, i32 noundef %31, ptr noundef @.str, i32 noundef 703)
  store i32 %32, ptr %4, align 4
  store i32 1, ptr %11, align 4
  br label %48

33:                                               ; preds = %21
  %34 = load i32, ptr %10, align 4, !tbaa !13
  %35 = load ptr, ptr %7, align 8, !tbaa !11
  %36 = getelementptr inbounds nuw %struct.mbedtls_asn1_buf, ptr %35, i32 0, i32 0
  store i32 %34, ptr %36, align 8, !tbaa !16
  %37 = load i64, ptr %9, align 8, !tbaa !24
  %38 = load ptr, ptr %7, align 8, !tbaa !11
  %39 = getelementptr inbounds nuw %struct.mbedtls_asn1_buf, ptr %38, i32 0, i32 1
  store i64 %37, ptr %39, align 8, !tbaa !20
  %40 = load ptr, ptr %5, align 8, !tbaa !3
  %41 = load ptr, ptr %40, align 8, !tbaa !9
  %42 = load ptr, ptr %7, align 8, !tbaa !11
  %43 = getelementptr inbounds nuw %struct.mbedtls_asn1_buf, ptr %42, i32 0, i32 2
  store ptr %41, ptr %43, align 8, !tbaa !19
  %44 = load i64, ptr %9, align 8, !tbaa !24
  %45 = load ptr, ptr %5, align 8, !tbaa !3
  %46 = load ptr, ptr %45, align 8, !tbaa !9
  %47 = getelementptr inbounds nuw i8, ptr %46, i64 %44
  store ptr %47, ptr %45, align 8, !tbaa !9
  store i32 0, ptr %4, align 4
  store i32 1, ptr %11, align 4
  br label %48

48:                                               ; preds = %33, %30, %19
  call void @llvm.lifetime.end.p0(i64 4, ptr %10) #9
  call void @llvm.lifetime.end.p0(i64 8, ptr %9) #9
  call void @llvm.lifetime.end.p0(i64 4, ptr %8) #9
  %49 = load i32, ptr %4, align 4
  ret i32 %49
}