; Function Attrs: nounwind uwtable
define hidden range(i32 -2147483648, 2147474304) i32 @mbedtls_x509_get_sig(ptr noundef %0, ptr noundef %1, ptr noundef writeonly captures(none) %2) local_unnamed_addr #0 {
  %4 = alloca i64, align 8
  call void @llvm.lifetime.start.p0(i64 8, ptr nonnull %4) #13
  %5 = load ptr, ptr %0, align 8, !tbaa !3
  %6 = ptrtoint ptr %1 to i64
  %7 = ptrtoint ptr %5 to i64
  %8 = sub i64 %6, %7
  %9 = icmp slt i64 %8, 1
  br i1 %9, label %22, label %10

10:                                               ; preds = %3
  %11 = load i8, ptr %5, align 1, !tbaa !8
  %12 = call i32 @mbedtls_asn1_get_bitstring_null(ptr noundef nonnull %0, ptr noundef %1, ptr noundef nonnull %4) #13
  %.not = icmp eq i32 %12, 0
  br i1 %.not, label %15, label %13

13:                                               ; preds = %10
  %14 = add nsw i32 %12, -9344
  br label %22

15:                                               ; preds = %10
  %16 = zext i8 %11 to i32
  store i32 %16, ptr %2, align 8, !tbaa !9
  %17 = load i64, ptr %4, align 8, !tbaa !16
  %18 = getelementptr inbounds nuw i8, ptr %2, i64 8
  store i64 %17, ptr %18, align 8, !tbaa !14
  %19 = load ptr, ptr %0, align 8, !tbaa !3
  %20 = getelementptr inbounds nuw i8, ptr %2, i64 16
  store ptr %19, ptr %20, align 8, !tbaa !13
  %21 = getelementptr inbounds nuw i8, ptr %19, i64 %17
  store ptr %21, ptr %0, align 8, !tbaa !3
  br label %22

22:                                               ; preds = %3, %15, %13
  %.0 = phi i32 [ %14, %13 ], [ 0, %15 ], [ -9440, %3 ]
  call void @llvm.lifetime.end.p0(i64 8, ptr nonnull %4) #13
  ret i32 %.0
}